target datalayout = "e-m:e-p270:32:32-p271:32:32-p272:64:64-i64:64-i128:128-f80:128-n8:16:32:64-S128"
target triple = "x86_64-pc-linux-gnu"

%struct.RFILE = type { ptr, i32, ptr, ptr, ptr, ptr, i64, ptr, i32 }

@PyExc_EOFError = external global ptr, align 8
@.str.8 = private unnamed_addr constant [28 x i8] c"EOF read where not expected\00", align 1

; Function Attrs: nounwind uwtable
define internal i32 @r_byte(ptr noundef %0) #0 {
  %2 = alloca i32, align 4
  %3 = alloca ptr, align 8
  %4 = alloca i32, align 4
  %5 = alloca i32, align 4
  %6 = alloca ptr, align 8
  store ptr %0, ptr %3, align 8, !tbaa !23
  %7 = load ptr, ptr %3, align 8, !tbaa !23
  %8 = getelementptr inbounds nuw %struct.RFILE, ptr %7, i32 0, i32 3
  %9 = load ptr, ptr %8, align 8, !tbaa !32
  %10 = icmp ne ptr %9, null
  br i1 %10, label %11, label %27

11:                                               ; preds = %1
  %12 = load ptr, ptr %3, align 8, !tbaa !23
  %13 = getelementptr inbounds nuw %struct.RFILE, ptr %12, i32 0, i32 3
  %14 = load ptr, ptr %13, align 8, !tbaa !32
  %15 = load ptr, ptr %3, align 8, !tbaa !23
  %16 = getelementptr inbounds nuw %struct.RFILE, ptr %15, i32 0, i32 4
  %17 = load ptr, ptr %16, align 8, !tbaa !33
  %18 = icmp ult ptr %14, %17
  br i1 %18, label %19, label %26

19:                                               ; preds = %11
  %20 = load ptr, ptr %3, align 8, !tbaa !23
  %21 = getelementptr inbounds nuw %struct.RFILE, ptr %20, i32 0, i32 3
  %22 = load ptr, ptr %21, align 8, !tbaa !32
  %23 = getelementptr i8, ptr %22, i32 1
  store ptr %23, ptr %21, align 8, !tbaa !32
  %24 = load i8, ptr %22, align 1, !tbaa !24
  %25 = zext i8 %24 to i32
  store i32 %25, ptr %2, align 4
  br label %59

26:                                               ; preds = %11
  br label %57

27:                                               ; preds = %1
  %28 = load ptr, ptr %3, align 8, !tbaa !23
  %29 = getelementptr inbounds nuw %struct.RFILE, ptr %28, i32 0, i32 2
  %30 = load ptr, ptr %29, align 8, !tbaa !29
  %31 = icmp ne ptr %30, null
  br i1 %31, label %45, label %32

32:                                               ; preds = %27
  call void @llvm.lifetime.start.p0(i64 4, ptr %4) #11
  %33 = load ptr, ptr %3, align 8, !tbaa !23
  %34 = getelementptr inbounds nuw %struct.RFILE, ptr %33, i32 0, i32 0
  %35 = load ptr, ptr %34, align 8, !tbaa !31
  %36 = call i32 @getc(ptr noundef %35)
  store i32 %36, ptr %4, align 4, !tbaa !11
  %37 = load i32, ptr %4, align 4, !tbaa !11
  %38 = icmp ne i32 %37, -1
  br i1 %38, label %39, label %41

39:                                               ; preds = %32
  %40 = load i32, ptr %4, align 4, !tbaa !11
  store i32 %40, ptr %2, align 4
  store i32 1, ptr %5, align 4
  br label %42

41:                                               ; preds = %32
  store i32 0, ptr %5, align 4
  br label %42

42:                                               ; preds = %41, %39
  call void @llvm.lifetime.end.p0(i64 4, ptr %4) #11
  %43 = load i32, ptr %5, align 4
  switch i32 %43, label %61 [
    i32 0, label %44
    i32 1, label %59
  ]

44:                                               ; preds = %42
  br label %56

45:                                               ; preds = %27
  call void @llvm.lifetime.start.p0(i64 8, ptr %6) #11
  %46 = load ptr, ptr %3, align 8, !tbaa !23
  %47 = call ptr @r_string(i64 noundef 1, ptr noundef %46)
  store ptr %47, ptr %6, align 8, !tbaa !37
  %48 = load ptr, ptr %6, align 8, !tbaa !37
  %49 = icmp ne ptr %48, null
  br i1 %49, label %50, label %54

50:                                               ; preds = %45
  %51 = load ptr, ptr %6, align 8, !tbaa !37
  %52 = load i8, ptr %51, align 1, !tbaa !24
  %53 = zext i8 %52 to i32
  store i32 %53, ptr %2, align 4
  store i32 1, ptr %5, align 4
  br label %55

54:                                               ; preds = %45
  store i32 -1, ptr %2, align 4
  store i32 1, ptr %5, align 4
  br label %55

55:                                               ; preds = %54, %50
  call void @llvm.lifetime.end.p0(i64 8, ptr %6) #11
  br label %59

56:                                               ; preds = %44
  br label %57

57:                                               ; preds = %56, %26
  %58 = load ptr, ptr @PyExc_EOFError, align 8, !tbaa !25
  call void @PyErr_SetString(ptr noundef %58, ptr noundef @.str.8)
  store i32 -1, ptr %2, align 4
  br label %59

59:                                               ; preds = %57, %55, %42, %19
  %60 = load i32, ptr %2, align 4
  ret i32 %60

61:                                               ; preds = %42
  unreachable
}