; Function Attrs: nounwind uwtable
define internal fastcc i32 @r_byte(ptr noundef nonnull captures(none) %0) unnamed_addr #0 {
  %2 = getelementptr inbounds nuw i8, ptr %0, i64 24
  %3 = load ptr, ptr %2, align 8, !tbaa !48
  %.not = icmp eq ptr %3, null
  br i1 %.not, label %12, label %4

4:                                                ; preds = %1
  %5 = getelementptr inbounds nuw i8, ptr %0, i64 32
  %6 = load ptr, ptr %5, align 8, !tbaa !49
  %7 = icmp ult ptr %3, %6
  br i1 %7, label %8, label %23

8:                                                ; preds = %4
  %9 = getelementptr i8, ptr %3, i64 1
  store ptr %9, ptr %2, align 8, !tbaa !48
  %10 = load i8, ptr %3, align 1, !tbaa !25
  %11 = zext i8 %10 to i32
  br label %25

12:                                               ; preds = %1
  %13 = getelementptr inbounds nuw i8, ptr %0, i64 16
  %14 = load ptr, ptr %13, align 8, !tbaa !43
  %.not15 = icmp eq ptr %14, null
  br i1 %.not15, label %15, label %18

15:                                               ; preds = %12
  %16 = load ptr, ptr %0, align 8, !tbaa !45
  %17 = tail call i32 @getc(ptr noundef %16)
  %.not16.not = icmp eq i32 %17, -1
  br i1 %.not16.not, label %23, label %25

18:                                               ; preds = %12
  %19 = tail call fastcc ptr @r_string(i64 noundef 1, ptr noundef %0)
  %.not17 = icmp eq ptr %19, null
  br i1 %.not17, label %25, label %20

20:                                               ; preds = %18
  %21 = load i8, ptr %19, align 1, !tbaa !25
  %22 = zext i8 %21 to i32
  br label %25

23:                                               ; preds = %15, %4
  %24 = load ptr, ptr @PyExc_EOFError, align 8, !tbaa !29
  tail call void @PyErr_SetString(ptr noundef %24, ptr noundef nonnull @.str.8) #11
  br label %25

25:                                               ; preds = %15, %20, %18, %23, %8
  %.0 = phi i32 [ %11, %8 ], [ -1, %23 ], [ %17, %15 ], [ %22, %20 ], [ -1, %18 ]
  ret i32 %.0
}